; Function Attrs: null_pointer_is_valid sspstrong uwtable
define internal noundef zeroext i1 @write_json_packet(ptr noundef %0, ptr noundef %1, ptr noundef %2, ptr noundef %3) #1 {
  %5 = getelementptr inbounds nuw i8, ptr %3, i64 8
  %6 = getelementptr inbounds nuw i8, ptr %0, i64 48
  %7 = load i16, ptr %6, align 8
  %8 = zext i16 %7 to i32
  tail call void @epan_dissect_run(ptr noundef nonnull %5, i32 noundef %8, ptr noundef %2, ptr noundef %1, ptr noundef null)
  %9 = getelementptr inbounds nuw i8, ptr %3, i64 472
  %10 = load ptr, ptr %9, align 8
  %11 = getelementptr inbounds nuw i8, ptr %10, i64 268
  %12 = load i32, ptr %11, align 4
  %13 = getelementptr inbounds nuw i8, ptr %10, i64 272
  %14 = load i8, ptr %13, align 8, !range !9, !noundef !10
  %15 = trunc nuw i8 %14 to i1
  %16 = getelementptr inbounds nuw i8, ptr %0, i64 280
  %17 = getelementptr inbounds nuw i8, ptr %3, i64 480
  tail call void @write_json_proto_tree(ptr noundef null, i32 noundef %12, i1 noundef zeroext %15, ptr noundef nonnull %5, ptr noundef nonnull %16, ptr noundef nonnull @proto_node_group_children_by_unique, ptr noundef nonnull %17)
  tail call void @epan_dissect_reset(ptr noundef nonnull %5)
  %18 = load ptr, ptr %3, align 8
  %19 = tail call i32 @ferror(ptr noundef %18) #23
  %.not = icmp eq i32 %19, 0
  ret i1 %.not
}